target datalayout = "e-m:e-p270:32:32-p271:32:32-p272:64:64-i64:64-i128:128-f80:128-n8:16:32:64-S128"
target triple = "x86_64-pc-linux-gnu"

%"class.std::__cxx11::basic_string" = type { %"struct.std::__cxx11::basic_string<char>::_Alloc_hider", i64, %union.anon }
%"struct.std::__cxx11::basic_string<char>::_Alloc_hider" = type { ptr }
%union.anon = type { i64, [8 x i8] }
%"class.std::__shared_count" = type { ptr }
%"class.cv::FileNode" = type { ptr, i64, i64 }
%"struct.cv::Ptr.56" = type { %"class.std::shared_ptr.57" }
%"class.std::shared_ptr.57" = type { %"class.std::__shared_ptr.58" }
%"class.std::__shared_ptr.58" = type { ptr, %"class.std::__shared_count" }
%"class.cv::FileStorage" = type { ptr, i32, %"class.std::__cxx11::basic_string", %"struct.cv::Ptr.56" }

; Function Attrs: mustprogress nounwind uwtable
define void @_ZN2cv8FileNodeC2EPNS_11FileStorage4ImplEmm(ptr noundef nonnull align 8 dereferenceable(24) %0, ptr noundef %1, i64 noundef %2, i64 noundef %3) unnamed_addr #8 align 2 {
  %5 = alloca ptr, align 8
  %6 = alloca ptr, align 8
  %7 = alloca i64, align 8
  %8 = alloca i64, align 8
  store ptr %0, ptr %5, align 8, !tbaa !212
  store ptr %1, ptr %6, align 8, !tbaa !38
  store i64 %2, ptr %7, align 8, !tbaa !8
  store i64 %3, ptr %8, align 8, !tbaa !8
  %9 = load ptr, ptr %5, align 8
  %10 = getelementptr inbounds nuw %"class.cv::FileNode", ptr %9, i32 0, i32 0
  %11 = load ptr, ptr %6, align 8, !tbaa !38
  store ptr %11, ptr %10, align 8, !tbaa !243
  %12 = load i64, ptr %7, align 8, !tbaa !8
  %13 = getelementptr inbounds nuw %"class.cv::FileNode", ptr %9, i32 0, i32 1
  store i64 %12, ptr %13, align 8, !tbaa !213
  %14 = load i64, ptr %8, align 8, !tbaa !8
  %15 = getelementptr inbounds nuw %"class.cv::FileNode", ptr %9, i32 0, i32 2
  store i64 %14, ptr %15, align 8, !tbaa !215
  ret void
}

; Function Attrs: mustprogress nounwind uwtable
define linkonce_odr hidden noundef ptr @_ZNKSt12__shared_ptrIN2cv11FileStorage4ImplELN9__gnu_cxx12_Lock_policyE2EE3getEv(ptr noundef nonnull align 8 dereferenceable(16) %0) #8 comdat align 2 {
  %2 = alloca ptr, align 8
  store ptr %0, ptr %2, align 8, !tbaa !299
  %3 = load ptr, ptr %2, align 8
  %4 = getelementptr inbounds nuw %"class.std::__shared_ptr.58", ptr %3, i32 0, i32 0
  %5 = load ptr, ptr %4, align 8, !tbaa !301
  ret ptr %5
}

; Function Attrs: mustprogress nounwind uwtable
define void @_ZN2cv8FileNodeC2EPKNS_11FileStorageEmm(ptr noundef nonnull align 8 dereferenceable(24) %0, ptr noundef %1, i64 noundef %2, i64 noundef %3) unnamed_addr #8 align 2 {
  %5 = alloca ptr, align 8
  %6 = alloca ptr, align 8
  %7 = alloca i64, align 8
  %8 = alloca i64, align 8
  store ptr %0, ptr %5, align 8, !tbaa !212
  store ptr %1, ptr %6, align 8, !tbaa !149
  store i64 %2, ptr %7, align 8, !tbaa !8
  store i64 %3, ptr %8, align 8, !tbaa !8
  %9 = load ptr, ptr %5, align 8
  %10 = load ptr, ptr %6, align 8, !tbaa !149
  %11 = getelementptr inbounds nuw %"class.cv::FileStorage", ptr %10, i32 0, i32 3
  %12 = call noundef ptr @_ZNKSt12__shared_ptrIN2cv11FileStorage4ImplELN9__gnu_cxx12_Lock_policyE2EE3getEv(ptr noundef nonnull align 8 dereferenceable(16) %11) #3
  %13 = load i64, ptr %7, align 8, !tbaa !8
  %14 = load i64, ptr %8, align 8, !tbaa !8
  call void @_ZN2cv8FileNodeC2EPNS_11FileStorage4ImplEmm(ptr noundef nonnull align 8 dereferenceable(24) %9, ptr noundef %12, i64 noundef %13, i64 noundef %14)
  ret void
}