; Function Attrs: mustprogress nofree norecurse nosync nounwind willreturn memory(argmem: readwrite) uwtable
define void @_ZN2cv8FileNodeC2EPKNS_11FileStorageEmm(ptr noundef nonnull writeonly align 8 captures(none) dereferenceable(24) initializes((0, 24)) %0, ptr noundef readonly captures(none) %1, i64 noundef %2, i64 noundef %3) unnamed_addr #30 align 2 {
  %5 = getelementptr inbounds nuw i8, ptr %1, i64 48
  %6 = load ptr, ptr %5, align 8, !tbaa !352
  store ptr %6, ptr %0, align 8, !tbaa !250
  %7 = getelementptr inbounds nuw i8, ptr %0, i64 8
  store i64 %2, ptr %7, align 8, !tbaa !253
  %8 = getelementptr inbounds nuw i8, ptr %0, i64 16
  store i64 %3, ptr %8, align 8, !tbaa !254
  ret void
}